target datalayout = "e-m:e-p270:32:32-p271:32:32-p272:64:64-i64:64-i128:128-f80:128-n8:16:32:64-S128"
target triple = "x86_64-pc-linux-gnu"

%"class.lean::object_ref" = type { ptr }
%struct.lean_object = type { i32, i32 }
%struct.lean_ctor_object = type { %struct.lean_object, [0 x ptr] }

; Function Attrs: inlinehint mustprogress nounwind uwtable
define internal noundef zeroext i1 @_ZL10lean_is_stP11lean_object(ptr noundef %0) #7 {
  %2 = alloca ptr, align 8
  store ptr %0, ptr %2, align 8, !tbaa !14
  %3 = load ptr, ptr %2, align 8, !tbaa !14
  %4 = getelementptr inbounds nuw %struct.lean_object, ptr %3, i32 0, i32 0
  %5 = load i32, ptr %4, align 4, !tbaa !51
  %6 = icmp sgt i32 %5, 0
  ret i1 %6
}

; Function Attrs: inlinehint mustprogress uwtable
define internal void @_ZL12lean_inc_refP11lean_object(ptr noundef %0) #4 {
  %2 = alloca ptr, align 8
  store ptr %0, ptr %2, align 8, !tbaa !14
  %3 = load ptr, ptr %2, align 8, !tbaa !14
  %4 = call noundef zeroext i1 @_ZL10lean_is_stP11lean_object(ptr noundef %3)
  %5 = zext i1 %4 to i64
  %6 = call i64 @llvm.expect.i64(i64 %5, i64 1)
  %7 = icmp ne i64 %6, 0
  br i1 %7, label %8, label %13

8:                                                ; preds = %1
  %9 = load ptr, ptr %2, align 8, !tbaa !14
  %10 = getelementptr inbounds nuw %struct.lean_object, ptr %9, i32 0, i32 0
  %11 = load i32, ptr %10, align 4, !tbaa !51
  %12 = add nsw i32 %11, 1
  store i32 %12, ptr %10, align 4, !tbaa !51
  br label %21

13:                                               ; preds = %1
  %14 = load ptr, ptr %2, align 8, !tbaa !14
  %15 = getelementptr inbounds nuw %struct.lean_object, ptr %14, i32 0, i32 0
  %16 = load i32, ptr %15, align 4, !tbaa !51
  %17 = icmp ne i32 %16, 0
  br i1 %17, label %18, label %20

18:                                               ; preds = %13
  %19 = load ptr, ptr %2, align 8, !tbaa !14
  call void @lean_inc_ref_cold(ptr noundef %19)
  br label %20

20:                                               ; preds = %18, %13
  br label %21

21:                                               ; preds = %20, %8
  ret void
}

; Function Attrs: alwaysinline mustprogress uwtable
define internal void @_ZL8lean_incP11lean_object(ptr noundef %0) #5 {
  %2 = alloca ptr, align 8
  store ptr %0, ptr %2, align 8, !tbaa !14
  %3 = load ptr, ptr %2, align 8, !tbaa !14
  %4 = call noundef zeroext i1 @_ZL14lean_is_scalarP11lean_object(ptr noundef %3)
  br i1 %4, label %7, label %5

5:                                                ; preds = %1
  %6 = load ptr, ptr %2, align 8, !tbaa !14
  call void @_ZL12lean_inc_refP11lean_object(ptr noundef %6)
  br label %7

7:                                                ; preds = %5, %1
  ret void
}

; Function Attrs: alwaysinline mustprogress nounwind uwtable
define internal noundef zeroext i1 @_ZL14lean_is_scalarP11lean_object(ptr noundef %0) #6 {
  %2 = alloca ptr, align 8
  store ptr %0, ptr %2, align 8, !tbaa !14
  %3 = load ptr, ptr %2, align 8, !tbaa !14
  %4 = ptrtoint ptr %3 to i64
  %5 = and i64 %4, 1
  %6 = icmp eq i64 %5, 1
  ret i1 %6
}

; Function Attrs: inlinehint mustprogress nounwind uwtable
define internal noundef ptr @_ZL12lean_to_ctorP11lean_object(ptr noundef %0) #7 {
  %2 = alloca ptr, align 8
  store ptr %0, ptr %2, align 8, !tbaa !14
  %3 = load ptr, ptr %2, align 8, !tbaa !14
  ret ptr %3
}

; Function Attrs: inlinehint mustprogress uwtable
define linkonce_odr hidden void @_ZN4lean3incEP11lean_object(ptr noundef %0) #4 comdat {
  %2 = alloca ptr, align 8
  store ptr %0, ptr %2, align 8, !tbaa !14
  %3 = load ptr, ptr %2, align 8, !tbaa !14
  call void @_ZL8lean_incP11lean_object(ptr noundef %3)
  ret void
}

; Function Attrs: alwaysinline mustprogress uwtable
define internal noundef zeroext i1 @_ZL11lean_nat_ltP11lean_objectS0_(ptr noundef %0, ptr noundef %1) #5 {
  %3 = alloca i1, align 1
  %4 = alloca ptr, align 8
  %5 = alloca ptr, align 8
  store ptr %0, ptr %4, align 8, !tbaa !14
  store ptr %1, ptr %5, align 8, !tbaa !14
  %6 = load ptr, ptr %4, align 8, !tbaa !14
  %7 = call noundef zeroext i1 @_ZL14lean_is_scalarP11lean_object(ptr noundef %6)
  br i1 %7, label %8, label %11

8:                                                ; preds = %2
  %9 = load ptr, ptr %5, align 8, !tbaa !14
  %10 = call noundef zeroext i1 @_ZL14lean_is_scalarP11lean_object(ptr noundef %9)
  br label %11

11:                                               ; preds = %8, %2
  %12 = phi i1 [ false, %2 ], [ %10, %8 ]
  %13 = zext i1 %12 to i64
  %14 = call i64 @llvm.expect.i64(i64 %13, i64 1)
  %15 = icmp ne i64 %14, 0
  br i1 %15, label %16, label %20

16:                                               ; preds = %11
  %17 = load ptr, ptr %4, align 8, !tbaa !14
  %18 = load ptr, ptr %5, align 8, !tbaa !14
  %19 = icmp ult ptr %17, %18
  store i1 %19, ptr %3, align 1
  br label %24

20:                                               ; preds = %11
  %21 = load ptr, ptr %4, align 8, !tbaa !14
  %22 = load ptr, ptr %5, align 8, !tbaa !14
  %23 = call zeroext i1 @lean_nat_big_lt(ptr noundef %21, ptr noundef %22)
  store i1 %23, ptr %3, align 1
  br label %24

24:                                               ; preds = %20, %16
  %25 = load i1, ptr %3, align 1
  ret i1 %25
}

; Function Attrs: inlinehint mustprogress uwtable
define linkonce_odr hidden noundef nonnull align 8 dereferenceable(8) ptr @_ZN4lean13cnstr_get_refEP11lean_objectj(ptr noundef %0, i32 noundef %1) #4 comdat {
  %3 = alloca ptr, align 8
  %4 = alloca i32, align 4
  store ptr %0, ptr %3, align 8, !tbaa !14
  store i32 %1, ptr %4, align 4, !tbaa !54
  %5 = load ptr, ptr %3, align 8, !tbaa !14
  %6 = call noundef ptr @_ZL12lean_to_ctorP11lean_object(ptr noundef %5)
  %7 = getelementptr inbounds nuw %struct.lean_ctor_object, ptr %6, i32 0, i32 1
  %8 = getelementptr inbounds [0 x ptr], ptr %7, i64 0, i64 0
  %9 = load i32, ptr %4, align 4, !tbaa !54
  %10 = zext i32 %9 to i64
  %11 = getelementptr inbounds nuw %"class.lean::object_ref", ptr %8, i64 %10
  ret ptr %11
}

; Function Attrs: inlinehint mustprogress nounwind uwtable
define internal noundef zeroext i8 @_ZL12lean_ptr_tagP11lean_object(ptr noundef %0) #7 {
  %2 = alloca ptr, align 8
  store ptr %0, ptr %2, align 8, !tbaa !14
  %3 = load ptr, ptr %2, align 8, !tbaa !14
  %4 = getelementptr inbounds nuw %struct.lean_object, ptr %3, i32 0, i32 1
  %5 = load i32, ptr %4, align 4
  %6 = lshr i32 %5, 24
  %7 = trunc i32 %6 to i8
  ret i8 %7
}

; Function Attrs: mustprogress uwtable
define linkonce_odr hidden noundef i32 @_ZN4lean3cmpERKNS_4nameES2_(ptr noundef nonnull align 8 dereferenceable(8) %0, ptr noundef nonnull align 8 dereferenceable(8) %1) #0 comdat {
  %3 = alloca ptr, align 8
  %4 = alloca ptr, align 8
  store ptr %0, ptr %3, align 8, !tbaa !21
  store ptr %1, ptr %4, align 8, !tbaa !21
  %5 = load ptr, ptr %3, align 8, !tbaa !21
  %6 = call noundef ptr @_ZNK4lean10object_ref3rawEv(ptr noundef nonnull align 8 dereferenceable(8) %5)
  %7 = load ptr, ptr %4, align 8, !tbaa !21
  %8 = call noundef ptr @_ZNK4lean10object_ref3rawEv(ptr noundef nonnull align 8 dereferenceable(8) %7)
  %9 = call noundef i32 @_ZN4lean4name8cmp_coreEP11lean_objectS2_(ptr noundef %6, ptr noundef %8)
  ret i32 %9
}

; Function Attrs: mustprogress uwtable
define linkonce_odr hidden noundef ptr @_ZNK4lean10object_ref10to_obj_argEv(ptr noundef nonnull align 8 dereferenceable(8) %0) #0 comdat align 2 {
  %2 = alloca ptr, align 8
  store ptr %0, ptr %2, align 8, !tbaa !12
  %3 = load ptr, ptr %2, align 8
  %4 = getelementptr inbounds nuw %"class.lean::object_ref", ptr %3, i32 0, i32 0
  %5 = load ptr, ptr %4, align 8, !tbaa !15
  call void @_ZN4lean3incEP11lean_object(ptr noundef %5)
  %6 = getelementptr inbounds nuw %"class.lean::object_ref", ptr %3, i32 0, i32 0
  %7 = load ptr, ptr %6, align 8, !tbaa !15
  ret ptr %7
}

; Function Attrs: inlinehint mustprogress uwtable
define linkonce_odr hidden noundef zeroext i1 @_ZN4lean6nat_ltEP11lean_objectS1_(ptr noundef %0, ptr noundef %1) #4 comdat {
  %3 = alloca ptr, align 8
  %4 = alloca ptr, align 8
  store ptr %0, ptr %3, align 8, !tbaa !14
  store ptr %1, ptr %4, align 8, !tbaa !14
  %5 = load ptr, ptr %3, align 8, !tbaa !14
  %6 = load ptr, ptr %4, align 8, !tbaa !14
  %7 = call noundef zeroext i1 @_ZL11lean_nat_ltP11lean_objectS0_(ptr noundef %5, ptr noundef %6)
  ret i1 %7
}

; Function Attrs: inlinehint mustprogress uwtable
define linkonce_odr hidden noundef zeroext i1 @_ZN4lean9string_ltEP11lean_objectS1_(ptr noundef %0, ptr noundef %1) #4 comdat {
  %3 = alloca ptr, align 8
  %4 = alloca ptr, align 8
  store ptr %0, ptr %3, align 8, !tbaa !14
  store ptr %1, ptr %4, align 8, !tbaa !14
  %5 = load ptr, ptr %3, align 8, !tbaa !14
  %6 = load ptr, ptr %4, align 8, !tbaa !14
  %7 = call zeroext i1 @lean_string_lt(ptr noundef %5, ptr noundef %6)
  ret i1 %7
}

; Function Attrs: inlinehint mustprogress uwtable
define linkonce_odr hidden noundef nonnull align 8 dereferenceable(8) ptr @_ZN4lean13cnstr_get_refERKNS_10object_refEj(ptr noundef nonnull align 8 dereferenceable(8) %0, i32 noundef %1) #4 comdat {
  %3 = alloca ptr, align 8
  %4 = alloca i32, align 4
  store ptr %0, ptr %3, align 8, !tbaa !12
  store i32 %1, ptr %4, align 4, !tbaa !54
  %5 = load ptr, ptr %3, align 8, !tbaa !12
  %6 = call noundef ptr @_ZNK4lean10object_ref3rawEv(ptr noundef nonnull align 8 dereferenceable(8) %5)
  %7 = load i32, ptr %4, align 4, !tbaa !54
  %8 = call noundef nonnull align 8 dereferenceable(8) ptr @_ZN4lean13cnstr_get_refEP11lean_objectj(ptr noundef %6, i32 noundef %7)
  ret ptr %8
}

; Function Attrs: inlinehint mustprogress uwtable
define linkonce_odr hidden noundef i32 @_ZN4lean9cnstr_tagEP11lean_object(ptr noundef %0) #4 comdat {
  %2 = alloca ptr, align 8
  store ptr %0, ptr %2, align 8, !tbaa !14
  %3 = load ptr, ptr %2, align 8, !tbaa !14
  %4 = call noundef zeroext i8 @_ZL12lean_ptr_tagP11lean_object(ptr noundef %3)
  %5 = zext i8 %4 to i32
  ret i32 %5
}

; Function Attrs: mustprogress nounwind uwtable
define linkonce_odr hidden noundef ptr @_ZNK4lean10object_ref3rawEv(ptr noundef nonnull align 8 dereferenceable(8) %0) #2 comdat align 2 {
  %2 = alloca ptr, align 8
  store ptr %0, ptr %2, align 8, !tbaa !12
  %3 = load ptr, ptr %2, align 8
  %4 = getelementptr inbounds nuw %"class.lean::object_ref", ptr %3, i32 0, i32 0
  %5 = load ptr, ptr %4, align 8, !tbaa !15
  ret ptr %5
}

; Function Attrs: mustprogress uwtable
define linkonce_odr hidden noundef zeroext i1 @_ZN4leanltERKNS_4nameES2_(ptr noundef nonnull align 8 dereferenceable(8) %0, ptr noundef nonnull align 8 dereferenceable(8) %1) #0 comdat {
  %3 = alloca ptr, align 8
  %4 = alloca ptr, align 8
  store ptr %0, ptr %3, align 8, !tbaa !21
  store ptr %1, ptr %4, align 8, !tbaa !21
  %5 = load ptr, ptr %3, align 8, !tbaa !21
  %6 = load ptr, ptr %4, align 8, !tbaa !21
  %7 = call noundef i32 @_ZN4lean3cmpERKNS_4nameES2_(ptr noundef nonnull align 8 dereferenceable(8) %5, ptr noundef nonnull align 8 dereferenceable(8) %6)
  %8 = icmp slt i32 %7, 0
  ret i1 %8
}

; Function Attrs: mustprogress uwtable
define linkonce_odr hidden noundef nonnull align 8 dereferenceable(8) ptr @_ZNK4lean10data_value8get_nameEv(ptr noundef nonnull align 8 dereferenceable(8) %0) #0 comdat align 2 {
  %2 = alloca ptr, align 8
  store ptr %0, ptr %2, align 8, !tbaa !3
  %3 = load ptr, ptr %2, align 8
  %4 = call noundef nonnull align 8 dereferenceable(8) ptr @_ZN4lean13cnstr_get_refERKNS_10object_refEj(ptr noundef nonnull align 8 dereferenceable(8) %3, i32 noundef 0)
  ret ptr %4
}

; Function Attrs: mustprogress uwtable
define hidden noundef zeroext i1 @_ZNK4lean10data_value8get_boolEv(ptr noundef nonnull align 8 dereferenceable(8) %0) #0 align 2 {
  %2 = alloca ptr, align 8
  store ptr %0, ptr %2, align 8, !tbaa !3
  %3 = load ptr, ptr %2, align 8
  %4 = call noundef ptr @_ZNK4lean10object_ref10to_obj_argEv(ptr noundef nonnull align 8 dereferenceable(8) %3)
  %5 = call zeroext i8 @lean_data_value_bool(ptr noundef %4)
  %6 = icmp ne i8 %5, 0
  ret i1 %6
}

; Function Attrs: mustprogress uwtable
define linkonce_odr hidden noundef zeroext i1 @_ZN4leanltERKNS_3natES2_(ptr noundef nonnull align 8 dereferenceable(8) %0, ptr noundef nonnull align 8 dereferenceable(8) %1) #0 comdat {
  %3 = alloca ptr, align 8
  %4 = alloca ptr, align 8
  store ptr %0, ptr %3, align 8, !tbaa !19
  store ptr %1, ptr %4, align 8, !tbaa !19
  %5 = load ptr, ptr %3, align 8, !tbaa !19
  %6 = call noundef ptr @_ZNK4lean10object_ref3rawEv(ptr noundef nonnull align 8 dereferenceable(8) %5)
  %7 = load ptr, ptr %4, align 8, !tbaa !19
  %8 = call noundef ptr @_ZNK4lean10object_ref3rawEv(ptr noundef nonnull align 8 dereferenceable(8) %7)
  %9 = call noundef zeroext i1 @_ZN4lean6nat_ltEP11lean_objectS1_(ptr noundef %6, ptr noundef %8)
  ret i1 %9
}

; Function Attrs: mustprogress uwtable
define linkonce_odr hidden noundef nonnull align 8 dereferenceable(8) ptr @_ZNK4lean10data_value7get_natEv(ptr noundef nonnull align 8 dereferenceable(8) %0) #0 comdat align 2 {
  %2 = alloca ptr, align 8
  store ptr %0, ptr %2, align 8, !tbaa !3
  %3 = load ptr, ptr %2, align 8
  %4 = call noundef nonnull align 8 dereferenceable(8) ptr @_ZN4lean13cnstr_get_refERKNS_10object_refEj(ptr noundef nonnull align 8 dereferenceable(8) %3, i32 noundef 0)
  ret ptr %4
}

; Function Attrs: mustprogress uwtable
define linkonce_odr hidden noundef zeroext i1 @_ZN4leanltERKNS_10string_refES2_(ptr noundef nonnull align 8 dereferenceable(8) %0, ptr noundef nonnull align 8 dereferenceable(8) %1) #0 comdat {
  %3 = alloca ptr, align 8
  %4 = alloca ptr, align 8
  store ptr %0, ptr %3, align 8, !tbaa !17
  store ptr %1, ptr %4, align 8, !tbaa !17
  %5 = load ptr, ptr %3, align 8, !tbaa !17
  %6 = call noundef ptr @_ZNK4lean10object_ref3rawEv(ptr noundef nonnull align 8 dereferenceable(8) %5)
  %7 = load ptr, ptr %4, align 8, !tbaa !17
  %8 = call noundef ptr @_ZNK4lean10object_ref3rawEv(ptr noundef nonnull align 8 dereferenceable(8) %7)
  %9 = call noundef zeroext i1 @_ZN4lean9string_ltEP11lean_objectS1_(ptr noundef %6, ptr noundef %8)
  ret i1 %9
}

; Function Attrs: mustprogress uwtable
define linkonce_odr hidden noundef nonnull align 8 dereferenceable(8) ptr @_ZNK4lean10data_value10get_stringEv(ptr noundef nonnull align 8 dereferenceable(8) %0) #0 comdat align 2 {
  %2 = alloca ptr, align 8
  store ptr %0, ptr %2, align 8, !tbaa !3
  %3 = load ptr, ptr %2, align 8
  %4 = call noundef nonnull align 8 dereferenceable(8) ptr @_ZN4lean13cnstr_get_refERKNS_10object_refEj(ptr noundef nonnull align 8 dereferenceable(8) %3, i32 noundef 0)
  ret ptr %4
}

; Function Attrs: mustprogress uwtable
define linkonce_odr hidden noundef i32 @_ZNK4lean10data_value4kindEv(ptr noundef nonnull align 8 dereferenceable(8) %0) #0 comdat align 2 {
  %2 = alloca ptr, align 8
  store ptr %0, ptr %2, align 8, !tbaa !3
  %3 = load ptr, ptr %2, align 8
  %4 = call noundef ptr @_ZNK4lean10object_ref3rawEv(ptr noundef nonnull align 8 dereferenceable(8) %3)
  %5 = call noundef i32 @_ZN4lean9cnstr_tagEP11lean_object(ptr noundef %4)
  ret i32 %5
}

; Function Attrs: mustprogress uwtable
define hidden noundef zeroext i1 @_ZN4leanltERKNS_10data_valueES2_(ptr noundef nonnull align 8 dereferenceable(8) %0, ptr noundef nonnull align 8 dereferenceable(8) %1) #0 {
  %3 = alloca i1, align 1
  %4 = alloca ptr, align 8
  %5 = alloca ptr, align 8
  store ptr %0, ptr %4, align 8, !tbaa !3
  store ptr %1, ptr %5, align 8, !tbaa !3
  %6 = load ptr, ptr %4, align 8, !tbaa !3
  %7 = call noundef i32 @_ZNK4lean10data_value4kindEv(ptr noundef nonnull align 8 dereferenceable(8) %6)
  %8 = load ptr, ptr %5, align 8, !tbaa !3
  %9 = call noundef i32 @_ZNK4lean10data_value4kindEv(ptr noundef nonnull align 8 dereferenceable(8) %8)
  %10 = icmp ne i32 %7, %9
  br i1 %10, label %11, label %17

11:                                               ; preds = %2
  %12 = load ptr, ptr %4, align 8, !tbaa !3
  %13 = call noundef i32 @_ZNK4lean10data_value4kindEv(ptr noundef nonnull align 8 dereferenceable(8) %12)
  %14 = load ptr, ptr %5, align 8, !tbaa !3
  %15 = call noundef i32 @_ZNK4lean10data_value4kindEv(ptr noundef nonnull align 8 dereferenceable(8) %14)
  %16 = icmp ult i32 %13, %15
  store i1 %16, ptr %3, align 1
  br label %47

17:                                               ; preds = %2
  %18 = load ptr, ptr %4, align 8, !tbaa !3
  %19 = call noundef i32 @_ZNK4lean10data_value4kindEv(ptr noundef nonnull align 8 dereferenceable(8) %18)
  switch i32 %19, label %46 [
    i32 0, label %20
    i32 3, label %26
    i32 1, label %32
    i32 2, label %40
  ]

20:                                               ; preds = %17
  %21 = load ptr, ptr %4, align 8, !tbaa !3
  %22 = call noundef nonnull align 8 dereferenceable(8) ptr @_ZNK4lean10data_value10get_stringEv(ptr noundef nonnull align 8 dereferenceable(8) %21)
  %23 = load ptr, ptr %5, align 8, !tbaa !3
  %24 = call noundef nonnull align 8 dereferenceable(8) ptr @_ZNK4lean10data_value10get_stringEv(ptr noundef nonnull align 8 dereferenceable(8) %23)
  %25 = call noundef zeroext i1 @_ZN4leanltERKNS_10string_refES2_(ptr noundef nonnull align 8 dereferenceable(8) %22, ptr noundef nonnull align 8 dereferenceable(8) %24)
  store i1 %25, ptr %3, align 1
  br label %47

26:                                               ; preds = %17
  %27 = load ptr, ptr %4, align 8, !tbaa !3
  %28 = call noundef nonnull align 8 dereferenceable(8) ptr @_ZNK4lean10data_value7get_natEv(ptr noundef nonnull align 8 dereferenceable(8) %27)
  %29 = load ptr, ptr %5, align 8, !tbaa !3
  %30 = call noundef nonnull align 8 dereferenceable(8) ptr @_ZNK4lean10data_value7get_natEv(ptr noundef nonnull align 8 dereferenceable(8) %29)
  %31 = call noundef zeroext i1 @_ZN4leanltERKNS_3natES2_(ptr noundef nonnull align 8 dereferenceable(8) %28, ptr noundef nonnull align 8 dereferenceable(8) %30)
  store i1 %31, ptr %3, align 1
  br label %47

32:                                               ; preds = %17
  %33 = load ptr, ptr %4, align 8, !tbaa !3
  %34 = call noundef zeroext i1 @_ZNK4lean10data_value8get_boolEv(ptr noundef nonnull align 8 dereferenceable(8) %33)
  br i1 %34, label %38, label %35

35:                                               ; preds = %32
  %36 = load ptr, ptr %5, align 8, !tbaa !3
  %37 = call noundef zeroext i1 @_ZNK4lean10data_value8get_boolEv(ptr noundef nonnull align 8 dereferenceable(8) %36)
  br label %38

38:                                               ; preds = %35, %32
  %39 = phi i1 [ false, %32 ], [ %37, %35 ]
  store i1 %39, ptr %3, align 1
  br label %47

40:                                               ; preds = %17
  %41 = load ptr, ptr %4, align 8, !tbaa !3
  %42 = call noundef nonnull align 8 dereferenceable(8) ptr @_ZNK4lean10data_value8get_nameEv(ptr noundef nonnull align 8 dereferenceable(8) %41)
  %43 = load ptr, ptr %5, align 8, !tbaa !3
  %44 = call noundef nonnull align 8 dereferenceable(8) ptr @_ZNK4lean10data_value8get_nameEv(ptr noundef nonnull align 8 dereferenceable(8) %43)
  %45 = call noundef zeroext i1 @_ZN4leanltERKNS_4nameES2_(ptr noundef nonnull align 8 dereferenceable(8) %42, ptr noundef nonnull align 8 dereferenceable(8) %44)
  store i1 %45, ptr %3, align 1
  br label %47

46:                                               ; preds = %17
  store i1 false, ptr %3, align 1
  br label %47

47:                                               ; preds = %46, %40, %38, %26, %20, %11
  %48 = load i1, ptr %3, align 1
  ret i1 %48
}