; Function Attrs: mustprogress uwtable
define hidden noundef zeroext i1 @_ZN4leanltERKNS_10data_valueES2_(ptr noundef nonnull readonly align 8 captures(none) dereferenceable(8) %0, ptr noundef nonnull readonly align 8 captures(none) dereferenceable(8) %1) local_unnamed_addr #0 {
  %3 = load ptr, ptr %0, align 8, !tbaa !3
  %4 = getelementptr i8, ptr %3, i64 4
  %.val.i.i = load i32, ptr %4, align 4
  %5 = lshr i32 %.val.i.i, 24
  %6 = load ptr, ptr %1, align 8, !tbaa !3
  %7 = getelementptr i8, ptr %6, i64 4
  %.val.i.i14 = load i32, ptr %7, align 4
  %8 = lshr i32 %.val.i.i14, 24
  %.not = icmp eq i32 %5, %8
  br i1 %.not, label %11, label %9

9:                                                ; preds = %2
  %10 = icmp samesign ult i32 %5, %8
  br label %_ZN4leanltERKNS_3natES2_.exit

11:                                               ; preds = %2
  %trunc = trunc nuw i32 %5 to i8
  switch i8 %trunc, label %_ZN4leanltERKNS_3natES2_.exit [
    i8 0, label %12
    i8 3, label %18
    i8 1, label %30
    i8 2, label %54
  ]

12:                                               ; preds = %11
  %13 = getelementptr inbounds nuw i8, ptr %3, i64 8
  %14 = getelementptr inbounds nuw i8, ptr %6, i64 8
  %15 = load ptr, ptr %13, align 8, !tbaa !3
  %16 = load ptr, ptr %14, align 8, !tbaa !3
  %17 = tail call noundef zeroext i1 @lean_string_lt(ptr noundef %15, ptr noundef %16)
  br label %_ZN4leanltERKNS_3natES2_.exit

18:                                               ; preds = %11
  %19 = getelementptr inbounds nuw i8, ptr %3, i64 8
  %20 = getelementptr inbounds nuw i8, ptr %6, i64 8
  %21 = load ptr, ptr %19, align 8, !tbaa !3
  %22 = load ptr, ptr %20, align 8, !tbaa !3
  %23 = ptrtoint ptr %21 to i64
  %24 = ptrtoint ptr %22 to i64
  %25 = and i64 %23, 1
  %26 = and i64 %25, %24
  %or.cond.not.i.i = icmp eq i64 %26, 0
  br i1 %or.cond.not.i.i, label %.critedge.i.i.i, label %27, !prof !12

27:                                               ; preds = %18
  %28 = icmp ult ptr %21, %22
  br label %_ZN4leanltERKNS_3natES2_.exit

.critedge.i.i.i:                                  ; preds = %18
  %29 = tail call zeroext i1 @lean_nat_big_lt(ptr noundef %21, ptr noundef %22)
  br label %_ZN4leanltERKNS_3natES2_.exit

30:                                               ; preds = %11
  %31 = ptrtoint ptr %3 to i64
  %32 = and i64 %31, 1
  %.not.i.i.i = icmp eq i64 %32, 0
  br i1 %.not.i.i.i, label %33, label %_ZNK4lean10data_value8get_boolEv.exit

33:                                               ; preds = %30
  %.val.i.i.i.i = load i32, ptr %3, align 4, !tbaa !8
  %34 = icmp sgt i32 %.val.i.i.i.i, 0
  br i1 %34, label %35, label %37, !prof !11

35:                                               ; preds = %33
  %36 = add nuw nsw i32 %.val.i.i.i.i, 1
  store i32 %36, ptr %3, align 4, !tbaa !8
  br label %_ZNK4lean10data_value8get_boolEv.exit

37:                                               ; preds = %33
  %.not.i.i.i.i = icmp eq i32 %.val.i.i.i.i, 0
  br i1 %.not.i.i.i.i, label %_ZNK4lean10data_value8get_boolEv.exit, label %38

38:                                               ; preds = %37
  tail call void @lean_inc_ref_cold(ptr noundef nonnull %3)
  %.pre.i.i = load ptr, ptr %0, align 8, !tbaa !3
  br label %_ZNK4lean10data_value8get_boolEv.exit

_ZNK4lean10data_value8get_boolEv.exit:            ; preds = %30, %35, %37, %38
  %39 = phi ptr [ %3, %30 ], [ %3, %35 ], [ %3, %37 ], [ %.pre.i.i, %38 ]
  %40 = tail call zeroext i8 @lean_data_value_bool(ptr noundef %39)
  %.not23 = icmp eq i8 %40, 0
  br i1 %.not23, label %41, label %_ZN4leanltERKNS_3natES2_.exit

41:                                               ; preds = %_ZNK4lean10data_value8get_boolEv.exit
  %42 = load ptr, ptr %1, align 8, !tbaa !3
  %43 = ptrtoint ptr %42 to i64
  %44 = and i64 %43, 1
  %.not.i.i.i18 = icmp eq i64 %44, 0
  br i1 %.not.i.i.i18, label %45, label %_ZNK4lean10data_value8get_boolEv.exit22

45:                                               ; preds = %41
  %.val.i.i.i.i19 = load i32, ptr %42, align 4, !tbaa !8
  %46 = icmp sgt i32 %.val.i.i.i.i19, 0
  br i1 %46, label %47, label %49, !prof !11

47:                                               ; preds = %45
  %48 = add nuw nsw i32 %.val.i.i.i.i19, 1
  store i32 %48, ptr %42, align 4, !tbaa !8
  br label %_ZNK4lean10data_value8get_boolEv.exit22

49:                                               ; preds = %45
  %.not.i.i.i.i20 = icmp eq i32 %.val.i.i.i.i19, 0
  br i1 %.not.i.i.i.i20, label %_ZNK4lean10data_value8get_boolEv.exit22, label %50

50:                                               ; preds = %49
  tail call void @lean_inc_ref_cold(ptr noundef nonnull %42)
  %.pre.i.i21 = load ptr, ptr %1, align 8, !tbaa !3
  br label %_ZNK4lean10data_value8get_boolEv.exit22

_ZNK4lean10data_value8get_boolEv.exit22:          ; preds = %41, %47, %49, %50
  %51 = phi ptr [ %42, %41 ], [ %42, %47 ], [ %42, %49 ], [ %.pre.i.i21, %50 ]
  %52 = tail call zeroext i8 @lean_data_value_bool(ptr noundef %51)
  %53 = icmp ne i8 %52, 0
  br label %_ZN4leanltERKNS_3natES2_.exit

54:                                               ; preds = %11
  %55 = getelementptr inbounds nuw i8, ptr %3, i64 8
  %56 = getelementptr inbounds nuw i8, ptr %6, i64 8
  %57 = load ptr, ptr %55, align 8, !tbaa !3
  %58 = load ptr, ptr %56, align 8, !tbaa !3
  %59 = tail call noundef i32 @_ZN4lean4name8cmp_coreEP11lean_objectS2_(ptr noundef %57, ptr noundef %58)
  %60 = icmp slt i32 %59, 0
  br label %_ZN4leanltERKNS_3natES2_.exit

_ZN4leanltERKNS_3natES2_.exit:                    ; preds = %.critedge.i.i.i, %27, %11, %_ZNK4lean10data_value8get_boolEv.exit, %_ZNK4lean10data_value8get_boolEv.exit22, %54, %12, %9
  %.0 = phi i1 [ %10, %9 ], [ %60, %54 ], [ %17, %12 ], [ false, %_ZNK4lean10data_value8get_boolEv.exit ], [ %53, %_ZNK4lean10data_value8get_boolEv.exit22 ], [ false, %11 ], [ %28, %27 ], [ %29, %.critedge.i.i.i ]
  ret i1 %.0
}